target datalayout = "e-m:e-p270:32:32-p271:32:32-p272:64:64-i64:64-i128:128-f80:128-n8:16:32:64-S128"
target triple = "x86_64-pc-linux-gnu"

%struct.AVFormatContext = type { ptr, ptr, ptr, ptr, ptr, i32, i32, ptr, i32, ptr, i32, ptr, ptr, i64, i64, i64, i32, i32, i32, i64, i64, ptr, i32, i32, ptr, i32, i32, i32, i32, ptr, i64, i32, i32, %struct.AVIOInterruptCB, i32, i32, i32, i32, i64, i32, i32, i32, i32, i32, i32, i32, i32, i32, i32, i32, i32, i64, i32, i32, i32, i32, i32, ptr, ptr, ptr, ptr, i32, ptr, ptr, ptr, ptr, i32, ptr, ptr, i64, ptr, ptr, ptr, i64 }
%struct.AVIOInterruptCB = type { ptr, ptr }
%struct.AVStream = type { ptr, i32, i32, ptr, ptr, %struct.AVRational, i64, i64, i64, i32, i32, %struct.AVRational, ptr, %struct.AVRational, %struct.AVPacket, i32, %struct.AVRational, i32 }
%struct.AVPacket = type { ptr, i64, i64, ptr, i32, i32, i32, ptr, i32, i64, i64, ptr, ptr, %struct.AVRational }
%struct.AVRational = type { i32, i32 }
%struct.AVCodecParameters = type { i32, i32, i32, ptr, i32, ptr, i32, i32, i64, i32, i32, i32, i32, i32, i32, %struct.AVRational, %struct.AVRational, i32, i32, i32, i32, i32, i32, i32, %struct.AVChannelLayout, i32, i32, i32, i32, i32, i32 }
%struct.AVChannelLayout = type { i32, i32, %union.anon, ptr }
%union.anon = type { i64 }

@.str.2 = private unnamed_addr constant [33 x i8] c"Invalid LC3 sample rate: %d Hz.\0A\00", align 1
@.str.3 = private unnamed_addr constant [38 x i8] c"Invalid LC3 frame duration: %.1f ms.\0A\00", align 1

; Function Attrs: nounwind uwtable
define internal i32 @check_frame_length(ptr noundef %0, i32 noundef %1, i32 noundef %2) #0 {
  %4 = alloca i32, align 4
  %5 = alloca ptr, align 8
  %6 = alloca i32, align 4
  %7 = alloca i32, align 4
  store ptr %0, ptr %5, align 8, !tbaa !82
  store i32 %1, ptr %6, align 4, !tbaa !15
  store i32 %2, ptr %7, align 4, !tbaa !15
  %8 = load i32, ptr %6, align 4, !tbaa !15
  %9 = icmp ne i32 %8, 8000
  br i1 %9, label %10, label %32

10:                                               ; preds = %3
  %11 = load i32, ptr %6, align 4, !tbaa !15
  %12 = icmp ne i32 %11, 16000
  br i1 %12, label %13, label %32

13:                                               ; preds = %10
  %14 = load i32, ptr %6, align 4, !tbaa !15
  %15 = icmp ne i32 %14, 24000
  br i1 %15, label %16, label %32

16:                                               ; preds = %13
  %17 = load i32, ptr %6, align 4, !tbaa !15
  %18 = icmp ne i32 %17, 32000
  br i1 %18, label %19, label %32

19:                                               ; preds = %16
  %20 = load i32, ptr %6, align 4, !tbaa !15
  %21 = icmp ne i32 %20, 48000
  br i1 %21, label %22, label %32

22:                                               ; preds = %19
  %23 = load i32, ptr %6, align 4, !tbaa !15
  %24 = icmp ne i32 %23, 96000
  br i1 %24, label %25, label %32

25:                                               ; preds = %22
  %26 = load ptr, ptr %5, align 8, !tbaa !82
  %27 = icmp ne ptr %26, null
  br i1 %27, label %28, label %31

28:                                               ; preds = %25
  %29 = load ptr, ptr %5, align 8, !tbaa !82
  %30 = load i32, ptr %6, align 4, !tbaa !15
  call void (ptr, i32, ptr, ...) @av_log(ptr noundef %29, i32 noundef 16, ptr noundef @.str.2, i32 noundef %30)
  br label %31

31:                                               ; preds = %28, %25
  store i32 -1, ptr %4, align 4
  br label %55

32:                                               ; preds = %22, %19, %16, %13, %10, %3
  %33 = load i32, ptr %7, align 4, !tbaa !15
  %34 = icmp ne i32 %33, 2500
  br i1 %34, label %35, label %54

35:                                               ; preds = %32
  %36 = load i32, ptr %7, align 4, !tbaa !15
  %37 = icmp ne i32 %36, 5000
  br i1 %37, label %38, label %54

38:                                               ; preds = %35
  %39 = load i32, ptr %7, align 4, !tbaa !15
  %40 = icmp ne i32 %39, 7500
  br i1 %40, label %41, label %54

41:                                               ; preds = %38
  %42 = load i32, ptr %7, align 4, !tbaa !15
  %43 = icmp ne i32 %42, 10000
  br i1 %43, label %44, label %54

44:                                               ; preds = %41
  %45 = load ptr, ptr %5, align 8, !tbaa !82
  %46 = icmp ne ptr %45, null
  br i1 %46, label %47, label %53

47:                                               ; preds = %44
  %48 = load ptr, ptr %5, align 8, !tbaa !82
  %49 = load i32, ptr %7, align 4, !tbaa !15
  %50 = sitofp i32 %49 to float
  %51 = fdiv nsz float %50, 1.000000e+03
  %52 = fpext nsz float %51 to double
  call void (ptr, i32, ptr, ...) @av_log(ptr noundef %48, i32 noundef 16, ptr noundef @.str.3, double noundef %52)
  br label %53

53:                                               ; preds = %47, %44
  store i32 -1, ptr %4, align 4
  br label %55

54:                                               ; preds = %41, %38, %35, %32
  store i32 0, ptr %4, align 4
  br label %55

55:                                               ; preds = %54, %53, %31
  %56 = load i32, ptr %4, align 4
  ret i32 %56
}

; Function Attrs: nounwind uwtable
define internal i32 @lc3_write_header(ptr noundef %0) #0 {
  %2 = alloca i32, align 4
  %3 = alloca ptr, align 8
  %4 = alloca ptr, align 8
  %5 = alloca i32, align 4
  %6 = alloca i32, align 4
  %7 = alloca i32, align 4
  %8 = alloca i32, align 4
  %9 = alloca i32, align 4
  %10 = alloca i32, align 4
  %11 = alloca i32, align 4
  %12 = alloca %struct.AVRational, align 4
  %13 = alloca i32, align 4
  store ptr %0, ptr %3, align 8, !tbaa !16
  call void @llvm.lifetime.start.p0(i64 8, ptr %4) #6
  %14 = load ptr, ptr %3, align 8, !tbaa !16
  %15 = getelementptr inbounds nuw %struct.AVFormatContext, ptr %14, i32 0, i32 7
  %16 = load ptr, ptr %15, align 8, !tbaa !61
  %17 = getelementptr inbounds ptr, ptr %16, i64 0
  %18 = load ptr, ptr %17, align 8, !tbaa !35
  store ptr %18, ptr %4, align 8, !tbaa !35
  call void @llvm.lifetime.start.p0(i64 4, ptr %5) #6
  %19 = load ptr, ptr %4, align 8, !tbaa !35
  %20 = getelementptr inbounds nuw %struct.AVStream, ptr %19, i32 0, i32 3
  %21 = load ptr, ptr %20, align 8, !tbaa !47
  %22 = getelementptr inbounds nuw %struct.AVCodecParameters, ptr %21, i32 0, i32 24
  %23 = getelementptr inbounds nuw %struct.AVChannelLayout, ptr %22, i32 0, i32 1
  %24 = load i32, ptr %23, align 4, !tbaa !54
  store i32 %24, ptr %5, align 4, !tbaa !15
  call void @llvm.lifetime.start.p0(i64 4, ptr %6) #6
  %25 = load ptr, ptr %4, align 8, !tbaa !35
  %26 = getelementptr inbounds nuw %struct.AVStream, ptr %25, i32 0, i32 3
  %27 = load ptr, ptr %26, align 8, !tbaa !47
  %28 = getelementptr inbounds nuw %struct.AVCodecParameters, ptr %27, i32 0, i32 25
  %29 = load i32, ptr %28, align 8, !tbaa !52
  store i32 %29, ptr %6, align 4, !tbaa !15
  call void @llvm.lifetime.start.p0(i64 4, ptr %7) #6
  %30 = load ptr, ptr %4, align 8, !tbaa !35
  %31 = getelementptr inbounds nuw %struct.AVStream, ptr %30, i32 0, i32 3
  %32 = load ptr, ptr %31, align 8, !tbaa !47
  %33 = getelementptr inbounds nuw %struct.AVCodecParameters, ptr %32, i32 0, i32 8
  %34 = load i64, ptr %33, align 8, !tbaa !53
  %35 = trunc i64 %34 to i32
  store i32 %35, ptr %7, align 4, !tbaa !15
  call void @llvm.lifetime.start.p0(i64 4, ptr %8) #6
  call void @llvm.lifetime.start.p0(i64 4, ptr %9) #6
  call void @llvm.lifetime.start.p0(i64 4, ptr %10) #6
  call void @llvm.lifetime.start.p0(i64 4, ptr %11) #6
  %36 = load ptr, ptr %4, align 8, !tbaa !35
  %37 = getelementptr inbounds nuw %struct.AVStream, ptr %36, i32 0, i32 7
  %38 = load i64, ptr %37, align 8, !tbaa !40
  %39 = load ptr, ptr %4, align 8, !tbaa !35
  %40 = getelementptr inbounds nuw %struct.AVStream, ptr %39, i32 0, i32 5
  %41 = getelementptr inbounds nuw %struct.AVRational, ptr %12, i32 0, i32 0
  store i32 1, ptr %41, align 4, !tbaa !77
  %42 = getelementptr inbounds nuw %struct.AVRational, ptr %12, i32 0, i32 1
  %43 = load i32, ptr %6, align 4, !tbaa !15
  store i32 %43, ptr %42, align 4, !tbaa !78
  %44 = load i64, ptr %40, align 8
  %45 = load i64, ptr %12, align 4
  %46 = call i64 @av_rescale_q(i64 noundef %38, i64 %44, i64 %45) #7
  %47 = trunc i64 %46 to i32
  store i32 %47, ptr %11, align 4, !tbaa !15
  %48 = load ptr, ptr %4, align 8, !tbaa !35
  %49 = getelementptr inbounds nuw %struct.AVStream, ptr %48, i32 0, i32 3
  %50 = load ptr, ptr %49, align 8, !tbaa !47
  %51 = getelementptr inbounds nuw %struct.AVCodecParameters, ptr %50, i32 0, i32 4
  %52 = load i32, ptr %51, align 8, !tbaa !79
  %53 = icmp slt i32 %52, 6
  br i1 %53, label %54, label %55

54:                                               ; preds = %1
  store i32 -1094995529, ptr %2, align 4
  store i32 1, ptr %13, align 4
  br label %138

55:                                               ; preds = %1
  %56 = load ptr, ptr %4, align 8, !tbaa !35
  %57 = getelementptr inbounds nuw %struct.AVStream, ptr %56, i32 0, i32 3
  %58 = load ptr, ptr %57, align 8, !tbaa !47
  %59 = getelementptr inbounds nuw %struct.AVCodecParameters, ptr %58, i32 0, i32 3
  %60 = load ptr, ptr %59, align 8, !tbaa !55
  %61 = getelementptr inbounds i8, ptr %60, i64 0
  %62 = load i16, ptr %61, align 1, !tbaa !14
  %63 = zext i16 %62 to i32
  %64 = mul nsw i32 %63, 10
  store i32 %64, ptr %8, align 4, !tbaa !15
  %65 = load ptr, ptr %4, align 8, !tbaa !35
  %66 = getelementptr inbounds nuw %struct.AVStream, ptr %65, i32 0, i32 3
  %67 = load ptr, ptr %66, align 8, !tbaa !47
  %68 = getelementptr inbounds nuw %struct.AVCodecParameters, ptr %67, i32 0, i32 3
  %69 = load ptr, ptr %68, align 8, !tbaa !55
  %70 = getelementptr inbounds i8, ptr %69, i64 2
  %71 = load i16, ptr %70, align 1, !tbaa !14
  %72 = zext i16 %71 to i32
  %73 = icmp ne i32 %72, 0
  %74 = zext i1 %73 to i32
  store i32 %74, ptr %9, align 4, !tbaa !15
  %75 = load ptr, ptr %4, align 8, !tbaa !35
  %76 = getelementptr inbounds nuw %struct.AVStream, ptr %75, i32 0, i32 3
  %77 = load ptr, ptr %76, align 8, !tbaa !47
  %78 = getelementptr inbounds nuw %struct.AVCodecParameters, ptr %77, i32 0, i32 3
  %79 = load ptr, ptr %78, align 8, !tbaa !55
  %80 = getelementptr inbounds i8, ptr %79, i64 4
  %81 = load i16, ptr %80, align 1, !tbaa !14
  %82 = zext i16 %81 to i32
  %83 = icmp ne i32 %82, 0
  %84 = zext i1 %83 to i32
  store i32 %84, ptr %10, align 4, !tbaa !15
  %85 = load ptr, ptr %3, align 8, !tbaa !16
  %86 = load i32, ptr %6, align 4, !tbaa !15
  %87 = load i32, ptr %8, align 4, !tbaa !15
  %88 = call i32 @check_frame_length(ptr noundef %85, i32 noundef %86, i32 noundef %87)
  %89 = icmp slt i32 %88, 0
  br i1 %89, label %90, label %91

90:                                               ; preds = %55
  store i32 -1094995529, ptr %2, align 4
  store i32 1, ptr %13, align 4
  br label %138

91:                                               ; preds = %55
  %92 = load ptr, ptr %3, align 8, !tbaa !16
  %93 = getelementptr inbounds nuw %struct.AVFormatContext, ptr %92, i32 0, i32 4
  %94 = load ptr, ptr %93, align 8, !tbaa !37
  call void @avio_wb16(ptr noundef %94, i32 noundef 7372)
  %95 = load ptr, ptr %3, align 8, !tbaa !16
  %96 = getelementptr inbounds nuw %struct.AVFormatContext, ptr %95, i32 0, i32 4
  %97 = load ptr, ptr %96, align 8, !tbaa !37
  %98 = load i32, ptr %10, align 4, !tbaa !15
  %99 = add nsw i32 9, %98
  %100 = sext i32 %99 to i64
  %101 = mul i64 %100, 2
  %102 = trunc i64 %101 to i32
  call void @avio_wl16(ptr noundef %97, i32 noundef %102)
  %103 = load ptr, ptr %3, align 8, !tbaa !16
  %104 = getelementptr inbounds nuw %struct.AVFormatContext, ptr %103, i32 0, i32 4
  %105 = load ptr, ptr %104, align 8, !tbaa !37
  %106 = load i32, ptr %6, align 4, !tbaa !15
  %107 = sdiv i32 %106, 100
  call void @avio_wl16(ptr noundef %105, i32 noundef %107)
  %108 = load ptr, ptr %3, align 8, !tbaa !16
  %109 = getelementptr inbounds nuw %struct.AVFormatContext, ptr %108, i32 0, i32 4
  %110 = load ptr, ptr %109, align 8, !tbaa !37
  %111 = load i32, ptr %7, align 4, !tbaa !15
  %112 = sdiv i32 %111, 100
  call void @avio_wl16(ptr noundef %110, i32 noundef %112)
  %113 = load ptr, ptr %3, align 8, !tbaa !16
  %114 = getelementptr inbounds nuw %struct.AVFormatContext, ptr %113, i32 0, i32 4
  %115 = load ptr, ptr %114, align 8, !tbaa !37
  %116 = load i32, ptr %5, align 4, !tbaa !15
  call void @avio_wl16(ptr noundef %115, i32 noundef %116)
  %117 = load ptr, ptr %3, align 8, !tbaa !16
  %118 = getelementptr inbounds nuw %struct.AVFormatContext, ptr %117, i32 0, i32 4
  %119 = load ptr, ptr %118, align 8, !tbaa !37
  %120 = load i32, ptr %8, align 4, !tbaa !15
  %121 = sdiv i32 %120, 10
  call void @avio_wl16(ptr noundef %119, i32 noundef %121)
  %122 = load ptr, ptr %3, align 8, !tbaa !16
  %123 = getelementptr inbounds nuw %struct.AVFormatContext, ptr %122, i32 0, i32 4
  %124 = load ptr, ptr %123, align 8, !tbaa !37
  %125 = load i32, ptr %9, align 4, !tbaa !15
  call void @avio_wl16(ptr noundef %124, i32 noundef %125)
  %126 = load ptr, ptr %3, align 8, !tbaa !16
  %127 = getelementptr inbounds nuw %struct.AVFormatContext, ptr %126, i32 0, i32 4
  %128 = load ptr, ptr %127, align 8, !tbaa !37
  %129 = load i32, ptr %11, align 4, !tbaa !15
  call void @avio_wl32(ptr noundef %128, i32 noundef %129)
  %130 = load i32, ptr %10, align 4, !tbaa !15
  %131 = icmp ne i32 %130, 0
  br i1 %131, label %132, label %137

132:                                              ; preds = %91
  %133 = load ptr, ptr %3, align 8, !tbaa !16
  %134 = getelementptr inbounds nuw %struct.AVFormatContext, ptr %133, i32 0, i32 4
  %135 = load ptr, ptr %134, align 8, !tbaa !37
  %136 = load i32, ptr %10, align 4, !tbaa !15
  call void @avio_wl16(ptr noundef %135, i32 noundef %136)
  br label %137

137:                                              ; preds = %132, %91
  store i32 0, ptr %2, align 4
  store i32 1, ptr %13, align 4
  br label %138

138:                                              ; preds = %137, %90, %54
  call void @llvm.lifetime.end.p0(i64 4, ptr %11) #6
  call void @llvm.lifetime.end.p0(i64 4, ptr %10) #6
  call void @llvm.lifetime.end.p0(i64 4, ptr %9) #6
  call void @llvm.lifetime.end.p0(i64 4, ptr %8) #6
  call void @llvm.lifetime.end.p0(i64 4, ptr %7) #6
  call void @llvm.lifetime.end.p0(i64 4, ptr %6) #6
  call void @llvm.lifetime.end.p0(i64 4, ptr %5) #6
  call void @llvm.lifetime.end.p0(i64 8, ptr %4) #6
  %139 = load i32, ptr %2, align 4
  ret i32 %139
}