; Function Attrs: nounwind uwtable
define internal range(i32 -1094995529, 1) i32 @lc3_write_header(ptr noundef %0) #1 {
  %2 = getelementptr inbounds nuw i8, ptr %0, i64 48
  %3 = load ptr, ptr %2, align 8, !tbaa !48
  %4 = load ptr, ptr %3, align 8, !tbaa !49
  %5 = getelementptr inbounds nuw i8, ptr %4, i64 16
  %6 = load ptr, ptr %5, align 8, !tbaa !36
  %7 = getelementptr inbounds nuw i8, ptr %6, i64 132
  %8 = load i32, ptr %7, align 4, !tbaa !43
  %9 = getelementptr inbounds nuw i8, ptr %6, i64 152
  %10 = load i32, ptr %9, align 8, !tbaa !41
  %11 = getelementptr inbounds nuw i8, ptr %6, i64 48
  %12 = load i64, ptr %11, align 8, !tbaa !42
  %13 = trunc i64 %12 to i32
  %14 = getelementptr inbounds nuw i8, ptr %4, i64 48
  %15 = load i64, ptr %14, align 8, !tbaa !29
  %16 = getelementptr inbounds nuw i8, ptr %4, i64 32
  %17 = load i64, ptr %16, align 8
  %.sroa.2.0.insert.ext = zext i32 %10 to i64
  %.sroa.2.0.insert.shift = shl nuw i64 %.sroa.2.0.insert.ext, 32
  %.sroa.0.0.insert.insert = or disjoint i64 %.sroa.2.0.insert.shift, 1
  %18 = tail call i64 @av_rescale_q(i64 noundef %15, i64 %17, i64 %.sroa.0.0.insert.insert) #6
  %19 = trunc i64 %18 to i32
  %20 = getelementptr inbounds nuw i8, ptr %6, i64 24
  %21 = load i32, ptr %20, align 8, !tbaa !65
  %22 = icmp slt i32 %21, 6
  br i1 %22, label %check_frame_length.exit.thread, label %23

23:                                               ; preds = %1
  %24 = getelementptr inbounds nuw i8, ptr %6, i64 16
  %25 = load ptr, ptr %24, align 8, !tbaa !44
  %26 = load i16, ptr %25, align 1, !tbaa !12
  %27 = zext i16 %26 to i32
  %28 = mul nuw nsw i32 %27, 10
  %29 = getelementptr inbounds nuw i8, ptr %25, i64 2
  %30 = load i16, ptr %29, align 1, !tbaa !12
  %31 = getelementptr inbounds nuw i8, ptr %25, i64 4
  %32 = load i16, ptr %31, align 1, !tbaa !12
  %33 = icmp ne i16 %32, 0
  %34 = zext i1 %33 to i32
  switch i32 %10, label %35 [
    i32 96000, label %36
    i32 48000, label %36
    i32 32000, label %36
    i32 24000, label %36
    i32 16000, label %36
    i32 8000, label %36
  ]

35:                                               ; preds = %23
  tail call void (ptr, i32, ptr, ...) @av_log(ptr noundef nonnull %0, i32 noundef 16, ptr noundef nonnull @.str.2, i32 noundef %10) #5
  br label %check_frame_length.exit.thread

36:                                               ; preds = %23, %23, %23, %23, %23, %23
  switch i32 %28, label %37 [
    i32 10000, label %check_frame_length.exit
    i32 7500, label %check_frame_length.exit
    i32 5000, label %check_frame_length.exit
    i32 2500, label %check_frame_length.exit
  ]

37:                                               ; preds = %36
  %38 = uitofp nneg i32 %28 to float
  %39 = fdiv nsz float %38, 1.000000e+03
  %40 = fpext nsz float %39 to double
  tail call void (ptr, i32, ptr, ...) @av_log(ptr noundef nonnull %0, i32 noundef 16, ptr noundef nonnull @.str.3, double noundef %40) #5
  br label %check_frame_length.exit.thread

check_frame_length.exit:                          ; preds = %36, %36, %36, %36
  %41 = icmp ne i16 %30, 0
  %42 = zext i1 %41 to i32
  %43 = getelementptr inbounds nuw i8, ptr %0, i64 32
  %44 = load ptr, ptr %43, align 8, !tbaa !28
  tail call void @avio_wb16(ptr noundef %44, i32 noundef 7372) #5
  %45 = load ptr, ptr %43, align 8, !tbaa !28
  %46 = select i1 %33, i32 20, i32 18
  tail call void @avio_wl16(ptr noundef %45, i32 noundef %46) #5
  %47 = load ptr, ptr %43, align 8, !tbaa !28
  %48 = udiv i32 %10, 100
  tail call void @avio_wl16(ptr noundef %47, i32 noundef %48) #5
  %49 = load ptr, ptr %43, align 8, !tbaa !28
  %50 = sdiv i32 %13, 100
  tail call void @avio_wl16(ptr noundef %49, i32 noundef %50) #5
  %51 = load ptr, ptr %43, align 8, !tbaa !28
  tail call void @avio_wl16(ptr noundef %51, i32 noundef %8) #5
  %52 = load ptr, ptr %43, align 8, !tbaa !28
  tail call void @avio_wl16(ptr noundef %52, i32 noundef %27) #5
  %53 = load ptr, ptr %43, align 8, !tbaa !28
  tail call void @avio_wl16(ptr noundef %53, i32 noundef %42) #5
  %54 = load ptr, ptr %43, align 8, !tbaa !28
  tail call void @avio_wl32(ptr noundef %54, i32 noundef %19) #5
  br i1 %33, label %55, label %check_frame_length.exit.thread

55:                                               ; preds = %check_frame_length.exit
  %56 = load ptr, ptr %43, align 8, !tbaa !28
  tail call void @avio_wl16(ptr noundef %56, i32 noundef %34) #5
  br label %check_frame_length.exit.thread

check_frame_length.exit.thread:                   ; preds = %37, %35, %check_frame_length.exit, %55, %1
  %.0 = phi i32 [ -1094995529, %1 ], [ 0, %55 ], [ 0, %check_frame_length.exit ], [ -1094995529, %35 ], [ -1094995529, %37 ]
  ret i32 %.0
}